; Function Attrs: mustprogress nounwind willreturn uwtable
define void @PMIx_Data_buffer_destruct(ptr noundef captures(none) initializes((8, 40)) %0) local_unnamed_addr #16 {
  %2 = load ptr, ptr %0, align 8, !tbaa !59
  %.not.i = icmp eq ptr %2, null
  br i1 %.not.i, label %pmix_bfrops_base_tma_data_buffer_destruct.exit, label %3

3:                                                ; preds = %1
  tail call void @free(ptr noundef nonnull %2) #44
  store ptr null, ptr %0, align 8, !tbaa !59
  br label %pmix_bfrops_base_tma_data_buffer_destruct.exit

pmix_bfrops_base_tma_data_buffer_destruct.exit:   ; preds = %1, %3
  %4 = getelementptr inbounds nuw i8, ptr %0, i64 8
  tail call void @llvm.memset.p0.i64(ptr noundef nonnull align 8 dereferenceable(32) %4, i8 0, i64 32, i1 false)
  ret void
}